target datalayout = "e-m:e-p270:32:32-p271:32:32-p272:64:64-i64:64-i128:128-f80:128-n8:16:32:64-S128"
target triple = "x86_64-pc-linux-gnu"

%struct.stbte__colorrect = type { i32, i32, i32, i32, i32 }
%struct.stbte__panel = type { i32, i32, i32, i32, i32, i32, i32, i32 }
%struct.stbte__ui_t = type { i32, i32, i32, i32, i32, i32, i32, i32, i32, i32, i32, i32, i32, i32, [2 x i32], [256 x %struct.stbte__colorrect], i32, i32, i32, i32, i32, i32, i32, i32, i32, i32, i32, i32, i32, i32, i32, i32, i32, i32, i32, i32, i32, i32, i32, i32, i32, i32, i32, i32, i32, i32, i32, i32, i32, i32, i32, i32, i32, i32, i32, i32, i32, float, ptr, float, [7 x %struct.stbte__panel], [65536 x [8 x i16]], [65536 x [1 x float]], i32, i32, ptr, i32, i32, i32, i32 }

; Function Attrs: nounwind uwtable
define void @stbte__activate(i32 noundef %0) #0 {
  %2 = alloca i32, align 4
  store i32 %0, ptr %2, align 4, !tbaa !13
  %3 = load i32, ptr %2, align 4, !tbaa !13
  store i32 %3, ptr getelementptr inbounds nuw (%struct.stbte__ui_t, ptr @stbte__ui, i32 0, i32 2), align 8, !tbaa !109
  %4 = load i32, ptr getelementptr inbounds nuw (%struct.stbte__ui_t, ptr @stbte__ui, i32 0, i32 5), align 4, !tbaa !110
  store i32 %4, ptr getelementptr inbounds nuw (%struct.stbte__ui_t, ptr @stbte__ui, i32 0, i32 1), align 4, !tbaa !111
  store i32 0, ptr getelementptr inbounds nuw (%struct.stbte__ui_t, ptr @stbte__ui, i32 0, i32 31), align 4, !tbaa !112
  store i32 0, ptr getelementptr inbounds nuw (%struct.stbte__ui_t, ptr @stbte__ui, i32 0, i32 32), align 8, !tbaa !113
  ret void
}

; Function Attrs: nounwind uwtable
define i32 @stbte__button_core(i32 noundef %0) #0 {
  %2 = alloca i32, align 4
  %3 = alloca i32, align 4
  store i32 %0, ptr %3, align 4, !tbaa !13
  %4 = load i32, ptr getelementptr inbounds nuw (%struct.stbte__ui_t, ptr @stbte__ui, i32 0, i32 5), align 4, !tbaa !110
  switch i32 %4, label %45 [
    i32 4, label %5
    i32 5, label %15
    i32 6, label %25
    i32 7, label %35
  ]

5:                                                ; preds = %1
  %6 = load i32, ptr getelementptr inbounds nuw (%struct.stbte__ui_t, ptr @stbte__ui, i32 0, i32 3), align 4, !tbaa !117
  %7 = load i32, ptr %3, align 4, !tbaa !13
  %8 = icmp eq i32 %6, %7
  br i1 %8, label %9, label %14

9:                                                ; preds = %5
  %10 = load i32, ptr getelementptr inbounds nuw (%struct.stbte__ui_t, ptr @stbte__ui, i32 0, i32 2), align 8, !tbaa !109
  %11 = icmp eq i32 %10, 0
  br i1 %11, label %12, label %14

12:                                               ; preds = %9
  %13 = load i32, ptr %3, align 4, !tbaa !13
  call void @stbte__activate(i32 noundef %13)
  br label %14

14:                                               ; preds = %12, %9, %5
  br label %45

15:                                               ; preds = %1
  %16 = load i32, ptr getelementptr inbounds nuw (%struct.stbte__ui_t, ptr @stbte__ui, i32 0, i32 2), align 8, !tbaa !109
  %17 = load i32, ptr %3, align 4, !tbaa !13
  %18 = icmp eq i32 %16, %17
  br i1 %18, label %19, label %24

19:                                               ; preds = %15
  %20 = load i32, ptr getelementptr inbounds nuw (%struct.stbte__ui_t, ptr @stbte__ui, i32 0, i32 3), align 4, !tbaa !117
  %21 = load i32, ptr %3, align 4, !tbaa !13
  %22 = icmp eq i32 %20, %21
  br i1 %22, label %23, label %24

23:                                               ; preds = %19
  call void @stbte__activate(i32 noundef 0)
  store i32 1, ptr %2, align 4
  br label %46

24:                                               ; preds = %19, %15
  br label %45

25:                                               ; preds = %1
  %26 = load i32, ptr getelementptr inbounds nuw (%struct.stbte__ui_t, ptr @stbte__ui, i32 0, i32 3), align 4, !tbaa !117
  %27 = load i32, ptr %3, align 4, !tbaa !13
  %28 = icmp eq i32 %26, %27
  br i1 %28, label %29, label %34

29:                                               ; preds = %25
  %30 = load i32, ptr getelementptr inbounds nuw (%struct.stbte__ui_t, ptr @stbte__ui, i32 0, i32 2), align 8, !tbaa !109
  %31 = icmp eq i32 %30, 0
  br i1 %31, label %32, label %34

32:                                               ; preds = %29
  %33 = load i32, ptr %3, align 4, !tbaa !13
  call void @stbte__activate(i32 noundef %33)
  br label %34

34:                                               ; preds = %32, %29, %25
  br label %45

35:                                               ; preds = %1
  %36 = load i32, ptr getelementptr inbounds nuw (%struct.stbte__ui_t, ptr @stbte__ui, i32 0, i32 2), align 8, !tbaa !109
  %37 = load i32, ptr %3, align 4, !tbaa !13
  %38 = icmp eq i32 %36, %37
  br i1 %38, label %39, label %44

39:                                               ; preds = %35
  %40 = load i32, ptr getelementptr inbounds nuw (%struct.stbte__ui_t, ptr @stbte__ui, i32 0, i32 3), align 4, !tbaa !117
  %41 = load i32, ptr %3, align 4, !tbaa !13
  %42 = icmp eq i32 %40, %41
  br i1 %42, label %43, label %44

43:                                               ; preds = %39
  call void @stbte__activate(i32 noundef 0)
  store i32 -1, ptr %2, align 4
  br label %46

44:                                               ; preds = %39, %35
  br label %45

45:                                               ; preds = %1, %44, %34, %24, %14
  store i32 0, ptr %2, align 4
  br label %46

46:                                               ; preds = %45, %43, %23
  %47 = load i32, ptr %2, align 4
  ret i32 %47
}

; Function Attrs: nounwind uwtable
define i32 @stbte__get_char_width(i32 noundef %0) #0 {
  %2 = alloca i32, align 4
  store i32 %0, ptr %2, align 4, !tbaa !13
  %3 = load i32, ptr %2, align 4, !tbaa !13
  %4 = sub nsw i32 %3, 16
  %5 = sext i32 %4 to i64
  %6 = getelementptr inbounds [769 x i16], ptr @stbte__fontdata, i64 0, i64 %5
  %7 = load i16, ptr %6, align 2, !tbaa !22
  %8 = sext i16 %7 to i32
  ret i32 %8
}

; Function Attrs: nounwind uwtable
define i32 @stbte__hittest(i32 noundef %0, i32 noundef %1, i32 noundef %2, i32 noundef %3, i32 noundef %4) #0 {
  %6 = alloca i32, align 4
  %7 = alloca i32, align 4
  %8 = alloca i32, align 4
  %9 = alloca i32, align 4
  %10 = alloca i32, align 4
  %11 = alloca i32, align 4
  store i32 %0, ptr %6, align 4, !tbaa !13
  store i32 %1, ptr %7, align 4, !tbaa !13
  store i32 %2, ptr %8, align 4, !tbaa !13
  store i32 %3, ptr %9, align 4, !tbaa !13
  store i32 %4, ptr %10, align 4, !tbaa !13
  call void @llvm.lifetime.start.p0(i64 4, ptr %11) #8
  %12 = load i32, ptr getelementptr inbounds nuw (%struct.stbte__ui_t, ptr @stbte__ui, i32 0, i32 6), align 8, !tbaa !114
  %13 = load i32, ptr %6, align 4, !tbaa !13
  %14 = icmp sge i32 %12, %13
  br i1 %14, label %15, label %27

15:                                               ; preds = %5
  %16 = load i32, ptr getelementptr inbounds nuw (%struct.stbte__ui_t, ptr @stbte__ui, i32 0, i32 7), align 4, !tbaa !115
  %17 = load i32, ptr %7, align 4, !tbaa !13
  %18 = icmp sge i32 %16, %17
  br i1 %18, label %19, label %27

19:                                               ; preds = %15
  %20 = load i32, ptr getelementptr inbounds nuw (%struct.stbte__ui_t, ptr @stbte__ui, i32 0, i32 6), align 8, !tbaa !114
  %21 = load i32, ptr %8, align 4, !tbaa !13
  %22 = icmp slt i32 %20, %21
  br i1 %22, label %23, label %27

23:                                               ; preds = %19
  %24 = load i32, ptr getelementptr inbounds nuw (%struct.stbte__ui_t, ptr @stbte__ui, i32 0, i32 7), align 4, !tbaa !115
  %25 = load i32, ptr %9, align 4, !tbaa !13
  %26 = icmp slt i32 %24, %25
  br label %27

27:                                               ; preds = %23, %19, %15, %5
  %28 = phi i1 [ false, %19 ], [ false, %15 ], [ false, %5 ], [ %26, %23 ]
  %29 = zext i1 %28 to i32
  store i32 %29, ptr %11, align 4, !tbaa !13
  %30 = load i32, ptr %11, align 4, !tbaa !13
  %31 = icmp ne i32 %30, 0
  br i1 %31, label %32, label %37

32:                                               ; preds = %27
  %33 = load i32, ptr getelementptr inbounds nuw (%struct.stbte__ui_t, ptr @stbte__ui, i32 0, i32 5), align 4, !tbaa !110
  %34 = icmp sge i32 %33, 1
  br i1 %34, label %35, label %37

35:                                               ; preds = %32
  %36 = load i32, ptr %10, align 4, !tbaa !13
  store i32 %36, ptr getelementptr inbounds nuw (%struct.stbte__ui_t, ptr @stbte__ui, i32 0, i32 4), align 8, !tbaa !116
  br label %37

37:                                               ; preds = %35, %32, %27
  %38 = load i32, ptr %11, align 4, !tbaa !13
  call void @llvm.lifetime.end.p0(i64 4, ptr %11) #8
  ret i32 %38
}

; Function Attrs: nounwind uwtable
define i32 @stbte__button_icon(i32 noundef %0, i8 noundef signext %1, i32 noundef %2, i32 noundef %3, i32 noundef %4, i32 noundef %5, i32 noundef %6, i32 noundef %7) #0 {
  %9 = alloca i32, align 4
  %10 = alloca i32, align 4
  %11 = alloca i8, align 1
  %12 = alloca i32, align 4
  %13 = alloca i32, align 4
  %14 = alloca i32, align 4
  %15 = alloca i32, align 4
  %16 = alloca i32, align 4
  %17 = alloca i32, align 4
  %18 = alloca i32, align 4
  %19 = alloca i32, align 4
  %20 = alloca i32, align 4
  %21 = alloca i32, align 4
  %22 = alloca i32, align 4
  %23 = alloca [2 x i8], align 1
  %24 = alloca i32, align 4
  %25 = alloca i32, align 4
  store i32 %0, ptr %10, align 4, !tbaa !13
  store i8 %1, ptr %11, align 1, !tbaa !60
  store i32 %2, ptr %12, align 4, !tbaa !13
  store i32 %3, ptr %13, align 4, !tbaa !13
  store i32 %4, ptr %14, align 4, !tbaa !13
  store i32 %5, ptr %15, align 4, !tbaa !13
  store i32 %6, ptr %16, align 4, !tbaa !13
  store i32 %7, ptr %17, align 4, !tbaa !13
  call void @llvm.lifetime.start.p0(i64 4, ptr %18) #8
  %26 = load i32, ptr %12, align 4, !tbaa !13
  store i32 %26, ptr %18, align 4, !tbaa !13
  call void @llvm.lifetime.start.p0(i64 4, ptr %19) #8
  %27 = load i32, ptr %13, align 4, !tbaa !13
  store i32 %27, ptr %19, align 4, !tbaa !13
  call void @llvm.lifetime.start.p0(i64 4, ptr %20) #8
  %28 = load i32, ptr %12, align 4, !tbaa !13
  %29 = load i32, ptr %14, align 4, !tbaa !13
  %30 = add nsw i32 %28, %29
  store i32 %30, ptr %20, align 4, !tbaa !13
  call void @llvm.lifetime.start.p0(i64 4, ptr %21) #8
  %31 = load i32, ptr %13, align 4, !tbaa !13
  %32 = add nsw i32 %31, 13
  store i32 %32, ptr %21, align 4, !tbaa !13
  call void @llvm.lifetime.start.p0(i64 4, ptr %22) #8
  store i32 2, ptr %22, align 4, !tbaa !13
  %33 = load i32, ptr %18, align 4, !tbaa !13
  %34 = load i32, ptr %19, align 4, !tbaa !13
  %35 = load i32, ptr %20, align 4, !tbaa !13
  %36 = load i32, ptr %21, align 4, !tbaa !13
  %37 = load i32, ptr %15, align 4, !tbaa !13
  %38 = call i32 @stbte__hittest(i32 noundef %33, i32 noundef %34, i32 noundef %35, i32 noundef %36, i32 noundef %37)
  %39 = load i32, ptr getelementptr inbounds nuw (%struct.stbte__ui_t, ptr @stbte__ui, i32 0, i32 5), align 4, !tbaa !110
  %40 = icmp eq i32 %39, 0
  br i1 %40, label %41, label %79

41:                                               ; preds = %8
  call void @llvm.lifetime.start.p0(i64 2, ptr %23) #8
  %42 = load i8, ptr %11, align 1, !tbaa !60
  store i8 %42, ptr %23, align 1, !tbaa !60
  %43 = getelementptr inbounds i8, ptr %23, i64 1
  store i8 0, ptr %43, align 1, !tbaa !60
  call void @llvm.lifetime.start.p0(i64 4, ptr %24) #8
  %44 = load i8, ptr %11, align 1, !tbaa !60
  %45 = sext i8 %44 to i32
  %46 = call i32 @stbte__get_char_width(i32 noundef %45)
  %47 = sub nsw i32 9, %46
  %48 = sdiv i32 %47, 2
  store i32 %48, ptr %24, align 4, !tbaa !13
  %49 = load i32, ptr %18, align 4, !tbaa !13
  %50 = load i32, ptr %19, align 4, !tbaa !13
  %51 = load i32, ptr %20, align 4, !tbaa !13
  %52 = load i32, ptr %21, align 4, !tbaa !13
  %53 = getelementptr inbounds [2 x i8], ptr %23, i64 0, i64 0
  %54 = load i32, ptr %22, align 4, !tbaa !13
  %55 = load i32, ptr %24, align 4, !tbaa !13
  %56 = add nsw i32 %54, %55
  %57 = load i32, ptr %22, align 4, !tbaa !13
  %58 = load i32, ptr %10, align 4, !tbaa !13
  %59 = load i32, ptr %17, align 4, !tbaa !13
  %60 = sext i32 %59 to i64
  %61 = getelementptr inbounds [2 x [2 x [2 x [2 x i8]]]], ptr @stbte__state_to_index, i64 0, i64 %60
  %62 = load i32, ptr %16, align 4, !tbaa !13
  %63 = sext i32 %62 to i64
  %64 = getelementptr inbounds [2 x [2 x [2 x i8]]], ptr %61, i64 0, i64 %63
  %65 = load i32, ptr getelementptr inbounds nuw (%struct.stbte__ui_t, ptr @stbte__ui, i32 0, i32 2), align 8, !tbaa !109
  %66 = load i32, ptr %15, align 4, !tbaa !13
  %67 = icmp eq i32 %65, %66
  %68 = zext i1 %67 to i32
  %69 = sext i32 %68 to i64
  %70 = getelementptr inbounds [2 x [2 x i8]], ptr %64, i64 0, i64 %69
  %71 = load i32, ptr getelementptr inbounds nuw (%struct.stbte__ui_t, ptr @stbte__ui, i32 0, i32 3), align 4, !tbaa !117
  %72 = load i32, ptr %15, align 4, !tbaa !13
  %73 = icmp eq i32 %71, %72
  %74 = zext i1 %73 to i32
  %75 = sext i32 %74 to i64
  %76 = getelementptr inbounds [2 x i8], ptr %70, i64 0, i64 %75
  %77 = load i8, ptr %76, align 1, !tbaa !60
  %78 = zext i8 %77 to i32
  call void @stbte__draw_textbox(i32 noundef %49, i32 noundef %50, i32 noundef %51, i32 noundef %52, ptr noundef %53, i32 noundef %56, i32 noundef %57, i32 noundef %58, i32 noundef %78)
  call void @llvm.lifetime.end.p0(i64 4, ptr %24) #8
  call void @llvm.lifetime.end.p0(i64 2, ptr %23) #8
  br label %79

79:                                               ; preds = %41, %8
  %80 = load i32, ptr %17, align 4, !tbaa !13
  %81 = icmp ne i32 %80, 0
  br i1 %81, label %82, label %83

82:                                               ; preds = %79
  store i32 0, ptr %9, align 4
  store i32 1, ptr %25, align 4
  br label %88

83:                                               ; preds = %79
  %84 = load i32, ptr %15, align 4, !tbaa !13
  %85 = call i32 @stbte__button_core(i32 noundef %84)
  %86 = icmp eq i32 %85, 1
  %87 = zext i1 %86 to i32
  store i32 %87, ptr %9, align 4
  store i32 1, ptr %25, align 4
  br label %88

88:                                               ; preds = %83, %82
  call void @llvm.lifetime.end.p0(i64 4, ptr %22) #8
  call void @llvm.lifetime.end.p0(i64 4, ptr %21) #8
  call void @llvm.lifetime.end.p0(i64 4, ptr %20) #8
  call void @llvm.lifetime.end.p0(i64 4, ptr %19) #8
  call void @llvm.lifetime.end.p0(i64 4, ptr %18) #8
  %89 = load i32, ptr %9, align 4
  ret i32 %89
}