; Function Attrs: nounwind uwtable
define range(i32 0, 2) i32 @stbte__button_icon(i32 noundef %0, i8 noundef signext %1, i32 noundef %2, i32 noundef %3, i32 noundef %4, i32 noundef %5, i32 noundef %6, i32 noundef %7) local_unnamed_addr #15 {
  %9 = alloca [2 x i8], align 1
  %10 = add nsw i32 %4, %2
  %11 = add nsw i32 %3, 13
  %12 = load i32, ptr getelementptr inbounds nuw (i8, ptr @stbte__ui, i64 24), align 8, !tbaa !99
  %.not.i = icmp slt i32 %12, %2
  br i1 %.not.i, label %stbte__hittest.exitthread-pre-split, label %13

13:                                               ; preds = %8
  %14 = load i32, ptr getelementptr inbounds nuw (i8, ptr @stbte__ui, i64 28), align 4, !tbaa !100
  %.not9.i = icmp sge i32 %14, %3
  %15 = icmp slt i32 %12, %10
  %or.cond10.i = and i1 %15, %.not9.i
  %16 = icmp slt i32 %14, %11
  %spec.select.i = and i1 %16, %or.cond10.i
  %17 = load i32, ptr getelementptr inbounds nuw (i8, ptr @stbte__ui, i64 20), align 4
  %18 = icmp sgt i32 %17, 0
  %or.cond.i = select i1 %spec.select.i, i1 %18, i1 false
  br i1 %or.cond.i, label %stbte__hittest.exit.thread, label %stbte__hittest.exit

stbte__hittest.exit.thread:                       ; preds = %13
  store i32 %5, ptr getelementptr inbounds nuw (i8, ptr @stbte__ui, i64 16), align 8, !tbaa !101
  br label %42

stbte__hittest.exitthread-pre-split:              ; preds = %8
  %.pr = load i32, ptr getelementptr inbounds nuw (i8, ptr @stbte__ui, i64 20), align 4, !tbaa !95
  br label %stbte__hittest.exit

stbte__hittest.exit:                              ; preds = %stbte__hittest.exitthread-pre-split, %13
  %19 = phi i32 [ %.pr, %stbte__hittest.exitthread-pre-split ], [ %17, %13 ]
  %20 = icmp eq i32 %19, 0
  br i1 %20, label %21, label %42

21:                                               ; preds = %stbte__hittest.exit
  call void @llvm.lifetime.start.p0(i64 2, ptr nonnull %9) #26
  store i8 %1, ptr %9, align 1, !tbaa !47
  %22 = getelementptr inbounds nuw i8, ptr %9, i64 1
  store i8 0, ptr %22, align 1, !tbaa !47
  %23 = sext i8 %1 to i64
  %24 = add nsw i64 %23, -16
  %25 = getelementptr inbounds [769 x i16], ptr @stbte__fontdata, i64 0, i64 %24
  %26 = load i16, ptr %25, align 2, !tbaa !21
  %27 = sext i16 %26 to i32
  %28 = sub nsw i32 9, %27
  %29 = sdiv i32 %28, 2
  %30 = add nsw i32 %29, 2
  %31 = sext i32 %7 to i64
  %32 = sext i32 %6 to i64
  %33 = load i32, ptr getelementptr inbounds nuw (i8, ptr @stbte__ui, i64 8), align 8, !tbaa !94
  %34 = icmp eq i32 %33, %5
  %35 = zext i1 %34 to i64
  %36 = load i32, ptr getelementptr inbounds nuw (i8, ptr @stbte__ui, i64 12), align 4, !tbaa !102
  %37 = icmp eq i32 %36, %5
  %38 = zext i1 %37 to i64
  %39 = getelementptr inbounds [2 x [2 x [2 x [2 x i8]]]], ptr @stbte__state_to_index, i64 0, i64 %31, i64 %32, i64 %35, i64 %38
  %40 = load i8, ptr %39, align 1, !tbaa !47
  %41 = zext i8 %40 to i32
  call void @stbte__draw_textbox(i32 noundef %2, i32 noundef %3, i32 noundef %10, i32 noundef %11, ptr noundef nonnull %9, i32 noundef %30, i32 noundef 2, i32 noundef %0, i32 noundef %41)
  call void @llvm.lifetime.end.p0(i64 2, ptr nonnull %9) #26
  br label %42

42:                                               ; preds = %stbte__hittest.exit.thread, %21, %stbte__hittest.exit
  %.not = icmp eq i32 %7, 0
  br i1 %.not, label %43, label %stbte__button_core.exit

43:                                               ; preds = %42
  %44 = load i32, ptr getelementptr inbounds nuw (i8, ptr @stbte__ui, i64 20), align 4, !tbaa !95
  switch i32 %44, label %stbte__button_core.exit [
    i32 4, label %45
    i32 5, label %50
    i32 6, label %55
    i32 7, label %60
  ]

45:                                               ; preds = %43
  %46 = load i32, ptr getelementptr inbounds nuw (i8, ptr @stbte__ui, i64 12), align 4, !tbaa !102
  %47 = icmp eq i32 %46, %5
  %48 = load i32, ptr getelementptr inbounds nuw (i8, ptr @stbte__ui, i64 8), align 8
  %49 = icmp eq i32 %48, 0
  %or.cond.i27 = select i1 %47, i1 %49, i1 false
  br i1 %or.cond.i27, label %.sink.split.i, label %stbte__button_core.exit

50:                                               ; preds = %43
  %51 = load i32, ptr getelementptr inbounds nuw (i8, ptr @stbte__ui, i64 8), align 8, !tbaa !94
  %52 = icmp eq i32 %51, %5
  %53 = load i32, ptr getelementptr inbounds nuw (i8, ptr @stbte__ui, i64 12), align 4
  %54 = icmp eq i32 %53, %5
  %or.cond14.i = select i1 %52, i1 %54, i1 false
  br i1 %or.cond14.i, label %.sink.split.i, label %stbte__button_core.exit

55:                                               ; preds = %43
  %56 = load i32, ptr getelementptr inbounds nuw (i8, ptr @stbte__ui, i64 12), align 4, !tbaa !102
  %57 = icmp eq i32 %56, %5
  %58 = load i32, ptr getelementptr inbounds nuw (i8, ptr @stbte__ui, i64 8), align 8
  %59 = icmp eq i32 %58, 0
  %or.cond3.i = select i1 %57, i1 %59, i1 false
  br i1 %or.cond3.i, label %.sink.split.i, label %stbte__button_core.exit

60:                                               ; preds = %43
  %61 = load i32, ptr getelementptr inbounds nuw (i8, ptr @stbte__ui, i64 8), align 8, !tbaa !94
  %62 = icmp eq i32 %61, %5
  %63 = load i32, ptr getelementptr inbounds nuw (i8, ptr @stbte__ui, i64 12), align 4
  %64 = icmp eq i32 %63, %5
  %or.cond16.i = select i1 %62, i1 %64, i1 false
  br i1 %or.cond16.i, label %.sink.split.i, label %stbte__button_core.exit

.sink.split.i:                                    ; preds = %60, %55, %50, %45
  %.sink17.i = phi i32 [ %5, %45 ], [ 0, %50 ], [ %5, %55 ], [ 0, %60 ]
  %65 = phi i32 [ 0, %45 ], [ 1, %50 ], [ 0, %55 ], [ 0, %60 ]
  store i32 %.sink17.i, ptr getelementptr inbounds nuw (i8, ptr @stbte__ui, i64 8), align 8, !tbaa !94
  store i32 %44, ptr getelementptr inbounds nuw (i8, ptr @stbte__ui, i64 4), align 4, !tbaa !96
  store i32 0, ptr getelementptr inbounds nuw (i8, ptr @stbte__ui, i64 5244), align 4, !tbaa !97
  store i32 0, ptr getelementptr inbounds nuw (i8, ptr @stbte__ui, i64 5248), align 8, !tbaa !98
  br label %stbte__button_core.exit

stbte__button_core.exit:                          ; preds = %.sink.split.i, %60, %55, %50, %45, %43, %42
  %.0 = phi i32 [ 0, %42 ], [ 0, %60 ], [ 0, %55 ], [ 0, %50 ], [ 0, %45 ], [ 0, %43 ], [ %65, %.sink.split.i ]
  ret i32 %.0
}